; Function Attrs: null_pointer_is_valid sspstrong uwtable
define hidden i32 @mapi_dissect_struct_CopyProperties_req(ptr noundef %0, i32 noundef %1, ptr noundef %2, ptr noundef %3, ptr noundef %4, ptr noundef %5, i32 noundef %6, i32 %7) local_unnamed_addr #0 {
  %9 = alloca i8, align 1
  %10 = getelementptr inbounds nuw i8, ptr %4, i64 26
  %11 = load i8, ptr %10, align 2, !range !9, !noundef !10
  store i8 1, ptr %10, align 2
  %.not = icmp eq ptr %3, null
  br i1 %.not, label %16, label %12

12:                                               ; preds = %8
  %13 = tail call ptr @proto_tree_add_item(ptr noundef nonnull %3, i32 noundef %6, ptr noundef %0, i32 noundef %1, i32 noundef -1, i32 noundef 0)
  %14 = load i32, ptr @ett_mapi_CopyProperties_req, align 4
  %15 = tail call ptr @proto_item_add_subtree(ptr noundef %13, i32 noundef %14)
  br label %16

16:                                               ; preds = %12, %8
  %.038 = phi ptr [ %15, %12 ], [ null, %8 ]
  %.0 = phi ptr [ %13, %12 ], [ null, %8 ]
  %17 = load i32, ptr @hf_mapi_LogonId, align 4
  %18 = tail call i32 @PIDL_dissect_uint8(ptr noundef %0, i32 noundef %1, ptr noundef %2, ptr noundef %.038, ptr noundef %4, ptr noundef %5, i32 noundef %17, i32 noundef 0)
  %19 = load i32, ptr @hf_mapi_CopyProperties_req_WantAsynchronous, align 4
  %20 = tail call i32 @PIDL_dissect_uint8(ptr noundef %0, i32 noundef %18, ptr noundef %2, ptr noundef %.038, ptr noundef %4, ptr noundef %5, i32 noundef %19, i32 noundef 0)
  %21 = load i32, ptr @hf_mapi_CopyProperties_req_CopyFlags, align 4
  call void @llvm.lifetime.start.p0(i64 1, ptr nonnull %9) #6
  %22 = load i32, ptr @ett_mapi_CopyFlags, align 4
  %23 = load i8, ptr %5, align 1
  %24 = and i8 %23, 16
  %25 = zext nneg i8 %24 to i32
  %26 = shl nuw i32 %25, 27
  %27 = tail call ptr @proto_tree_add_bitmask_with_flags(ptr noundef %.038, ptr noundef %0, i32 noundef %20, i32 noundef %21, i32 noundef %22, ptr noundef nonnull @mapi_dissect_bitmap_CopyFlags.mapi_CopyFlags_fields, i32 noundef %26, i32 noundef 4)
  %28 = call i32 @dissect_ndr_uint8(ptr noundef %0, i32 noundef %20, ptr noundef %2, ptr noundef %.038, ptr noundef %4, ptr noundef %5, i32 noundef -1, ptr noundef nonnull %9)
  %29 = load i8, ptr %9, align 1
  %.not.i.i = icmp eq i8 %29, 0
  br i1 %.not.i.i, label %30, label %31

30:                                               ; preds = %16
  call void (ptr, ptr, ...) @proto_item_append_text(ptr noundef %27, ptr noundef nonnull @.str.3868)
  %.pre.i.i = load i8, ptr %9, align 1
  br label %31

31:                                               ; preds = %30, %16
  %32 = phi i8 [ %.pre.i.i, %30 ], [ %29, %16 ]
  %33 = and i8 %32, -4
  %.not13.i.i = icmp eq i8 %33, 0
  br i1 %.not13.i.i, label %mapi_dissect_element_CopyProperties_req_CopyFlags.exit, label %34

34:                                               ; preds = %31
  store i8 %33, ptr %9, align 1
  %35 = zext i8 %33 to i32
  call void (ptr, ptr, ...) @proto_item_append_text(ptr noundef %27, ptr noundef nonnull @.str.3869, i32 noundef %35)
  br label %mapi_dissect_element_CopyProperties_req_CopyFlags.exit

mapi_dissect_element_CopyProperties_req_CopyFlags.exit: ; preds = %31, %34
  call void @llvm.lifetime.end.p0(i64 1, ptr nonnull %9) #6
  %36 = load i32, ptr @hf_mapi_CopyProperties_req_PropertyTags, align 4
  %37 = load i8, ptr %10, align 2, !range !9, !noundef !10
  store i8 1, ptr %10, align 2
  %.not.i.i40 = icmp eq ptr %.038, null
  br i1 %.not.i.i40, label %mapi_dissect_element_CopyProperties_req_PropertyTags.exit, label %38

38:                                               ; preds = %mapi_dissect_element_CopyProperties_req_CopyFlags.exit
  %39 = call ptr @proto_tree_add_item(ptr noundef nonnull %.038, i32 noundef %36, ptr noundef %0, i32 noundef %28, i32 noundef -1, i32 noundef 0)
  %40 = load i32, ptr @ett_mapi_mapi_SPropTagArray, align 4
  %41 = call ptr @proto_item_add_subtree(ptr noundef %39, i32 noundef %40)
  br label %mapi_dissect_element_CopyProperties_req_PropertyTags.exit

mapi_dissect_element_CopyProperties_req_PropertyTags.exit: ; preds = %mapi_dissect_element_CopyProperties_req_CopyFlags.exit, %38
  %.026.i.i = phi ptr [ %41, %38 ], [ null, %mapi_dissect_element_CopyProperties_req_CopyFlags.exit ]
  %.0.i.i = phi ptr [ %39, %38 ], [ null, %mapi_dissect_element_CopyProperties_req_CopyFlags.exit ]
  %42 = load i32, ptr @hf_mapi_mapi_SPropTagArray_cValues, align 4
  %43 = call i32 @PIDL_dissect_uint16(ptr noundef %0, i32 noundef %28, ptr noundef %2, ptr noundef %.026.i.i, ptr noundef %4, ptr noundef %5, i32 noundef %42, i32 noundef 0)
  %44 = call i32 @dissect_ndr_ucarray(ptr noundef %0, i32 noundef %43, ptr noundef %2, ptr noundef %.026.i.i, ptr noundef %4, ptr noundef %5, ptr noundef nonnull @mapi_dissect_element_SPropTagArray_aulPropTag_)
  %45 = sub i32 %44, %28
  call void @proto_item_set_len(ptr noundef %.0.i.i, i32 noundef %45)
  store i8 %37, ptr %10, align 2
  %46 = sub i32 %44, %1
  call void @proto_item_set_len(ptr noundef %.0, i32 noundef %46)
  store i8 %11, ptr %10, align 2
  ret i32 %44
}